target datalayout = "e-m:e-p270:32:32-p271:32:32-p272:64:64-i64:64-i128:128-f80:128-n8:16:32:64-S128"
target triple = "x86_64-unknown-linux-gnu"

%struct.ASN1_ITEM_st = type { i8, i64, ptr, i64, ptr, i64, ptr }

@X509_PUBKEY_it = hidden constant %struct.ASN1_ITEM_st { i8 1, i64 16, ptr @X509_PUBKEY_seq_tt, i64 2, ptr @X509_PUBKEY_aux, i64 24, ptr @.str }, align 8

; Function Attrs: nounwind uwtable
define hidden void @X509_PUBKEY_free(ptr noundef %a) #0 {
entry:
  %a.addr = alloca ptr, align 8
  store ptr %a, ptr %a.addr, align 8
  %0 = load ptr, ptr %a.addr, align 8
  call void @ASN1_item_free(ptr noundef %0, ptr noundef @X509_PUBKEY_it)
  ret void
}

; Function Attrs: nounwind uwtable
define hidden ptr @d2i_X509_PUBKEY(ptr noundef %a, ptr noundef %in, i64 noundef %len) #0 {
entry:
  %a.addr = alloca ptr, align 8
  %in.addr = alloca ptr, align 8
  %len.addr = alloca i64, align 8
  store ptr %a, ptr %a.addr, align 8
  store ptr %in, ptr %in.addr, align 8
  store i64 %len, ptr %len.addr, align 8
  %0 = load ptr, ptr %a.addr, align 8
  %1 = load ptr, ptr %in.addr, align 8
  %2 = load i64, ptr %len.addr, align 8
  %call = call ptr @ASN1_item_d2i(ptr noundef %0, ptr noundef %1, i64 noundef %2, ptr noundef @X509_PUBKEY_it)
  ret ptr %call
}

; Function Attrs: nounwind uwtable
define hidden ptr @d2i_PUBKEY(ptr noundef %a, ptr noundef %pp, i64 noundef %length) #0 {
entry:
  %retval = alloca ptr, align 8
  %a.addr = alloca ptr, align 8
  %pp.addr = alloca ptr, align 8
  %length.addr = alloca i64, align 8
  %xpk = alloca ptr, align 8
  %pktmp = alloca ptr, align 8
  store ptr %a, ptr %a.addr, align 8
  store ptr %pp, ptr %pp.addr, align 8
  store i64 %length, ptr %length.addr, align 8
  %0 = load ptr, ptr %pp.addr, align 8
  %1 = load i64, ptr %length.addr, align 8
  %call = call ptr @d2i_X509_PUBKEY(ptr noundef null, ptr noundef %0, i64 noundef %1)
  store ptr %call, ptr %xpk, align 8
  %2 = load ptr, ptr %xpk, align 8
  %tobool = icmp ne ptr %2, null
  br i1 %tobool, label %if.end, label %if.then

if.then:                                          ; preds = %entry
  store ptr null, ptr %retval, align 8
  br label %return

if.end:                                           ; preds = %entry
  %3 = load ptr, ptr %xpk, align 8
  %call1 = call ptr @X509_PUBKEY_get(ptr noundef %3)
  store ptr %call1, ptr %pktmp, align 8
  %4 = load ptr, ptr %xpk, align 8
  call void @X509_PUBKEY_free(ptr noundef %4)
  %5 = load ptr, ptr %pktmp, align 8
  %tobool2 = icmp ne ptr %5, null
  br i1 %tobool2, label %if.end4, label %if.then3

if.then3:                                         ; preds = %if.end
  store ptr null, ptr %retval, align 8
  br label %return

if.end4:                                          ; preds = %if.end
  %6 = load ptr, ptr %a.addr, align 8
  %tobool5 = icmp ne ptr %6, null
  br i1 %tobool5, label %if.then6, label %if.end7

if.then6:                                         ; preds = %if.end4
  %7 = load ptr, ptr %a.addr, align 8
  %8 = load ptr, ptr %7, align 8
  call void @EVP_PKEY_free(ptr noundef %8)
  %9 = load ptr, ptr %pktmp, align 8
  %10 = load ptr, ptr %a.addr, align 8
  store ptr %9, ptr %10, align 8
  br label %if.end7

if.end7:                                          ; preds = %if.then6, %if.end4
  %11 = load ptr, ptr %pktmp, align 8
  store ptr %11, ptr %retval, align 8
  br label %return

return:                                           ; preds = %if.end7, %if.then3, %if.then
  %12 = load ptr, ptr %retval, align 8
  ret ptr %12
}

; Function Attrs: nounwind uwtable
define hidden ptr @d2i_EC_PUBKEY(ptr noundef %a, ptr noundef %pp, i64 noundef %length) #0 {
entry:
  %retval = alloca ptr, align 8
  %a.addr = alloca ptr, align 8
  %pp.addr = alloca ptr, align 8
  %length.addr = alloca i64, align 8
  %pkey = alloca ptr, align 8
  %key = alloca ptr, align 8
  %q = alloca ptr, align 8
  store ptr %a, ptr %a.addr, align 8
  store ptr %pp, ptr %pp.addr, align 8
  store i64 %length, ptr %length.addr, align 8
  %0 = load ptr, ptr %pp.addr, align 8
  %1 = load ptr, ptr %0, align 8
  store ptr %1, ptr %q, align 8
  %2 = load i64, ptr %length.addr, align 8
  %call = call ptr @d2i_PUBKEY(ptr noundef null, ptr noundef %q, i64 noundef %2)
  store ptr %call, ptr %pkey, align 8
  %3 = load ptr, ptr %pkey, align 8
  %tobool = icmp ne ptr %3, null
  br i1 %tobool, label %if.end, label %if.then

if.then:                                          ; preds = %entry
  store ptr null, ptr %retval, align 8
  br label %return

if.end:                                           ; preds = %entry
  %4 = load ptr, ptr %pkey, align 8
  %call1 = call ptr @EVP_PKEY_get1_EC_KEY(ptr noundef %4)
  store ptr %call1, ptr %key, align 8
  %5 = load ptr, ptr %pkey, align 8
  call void @EVP_PKEY_free(ptr noundef %5)
  %6 = load ptr, ptr %key, align 8
  %tobool2 = icmp ne ptr %6, null
  br i1 %tobool2, label %if.end4, label %if.then3

if.then3:                                         ; preds = %if.end
  store ptr null, ptr %retval, align 8
  br label %return

if.end4:                                          ; preds = %if.end
  %7 = load ptr, ptr %q, align 8
  %8 = load ptr, ptr %pp.addr, align 8
  store ptr %7, ptr %8, align 8
  %9 = load ptr, ptr %a.addr, align 8
  %tobool5 = icmp ne ptr %9, null
  br i1 %tobool5, label %if.then6, label %if.end7

if.then6:                                         ; preds = %if.end4
  %10 = load ptr, ptr %a.addr, align 8
  %11 = load ptr, ptr %10, align 8
  call void @EC_KEY_free(ptr noundef %11)
  %12 = load ptr, ptr %key, align 8
  %13 = load ptr, ptr %a.addr, align 8
  store ptr %12, ptr %13, align 8
  br label %if.end7

if.end7:                                          ; preds = %if.then6, %if.end4
  %14 = load ptr, ptr %key, align 8
  store ptr %14, ptr %retval, align 8
  br label %return

return:                                           ; preds = %if.end7, %if.then3, %if.then
  %15 = load ptr, ptr %retval, align 8
  ret ptr %15
}