; Function Attrs: nounwind uwtable
define hidden ptr @d2i_EC_PUBKEY(ptr noundef %a, ptr noundef captures(none) %pp, i64 noundef %length) local_unnamed_addr #0 {
entry:
  %q = alloca ptr, align 8
  %0 = load ptr, ptr %pp, align 8
  store ptr %0, ptr %q, align 8
  %call.i.i = call ptr @ASN1_item_d2i(ptr noundef null, ptr noundef nonnull %q, i64 noundef %length, ptr noundef nonnull @X509_PUBKEY_it) #5
  %tobool.not.i = icmp eq ptr %call.i.i, null
  br i1 %tobool.not.i, label %return, label %if.end.i

if.end.i:                                         ; preds = %entry
  %call1.i = call ptr @X509_PUBKEY_get(ptr noundef nonnull %call.i.i)
  call void @ASN1_item_free(ptr noundef nonnull %call.i.i, ptr noundef nonnull @X509_PUBKEY_it) #5
  %tobool2.not.i = icmp eq ptr %call1.i, null
  br i1 %tobool2.not.i, label %return, label %if.end

if.end:                                           ; preds = %if.end.i
  %call1 = call ptr @EVP_PKEY_get1_EC_KEY(ptr noundef nonnull %call1.i) #5
  call void @EVP_PKEY_free(ptr noundef nonnull %call1.i) #5
  %tobool2.not = icmp eq ptr %call1, null
  br i1 %tobool2.not, label %return, label %if.end4

if.end4:                                          ; preds = %if.end
  %1 = load ptr, ptr %q, align 8
  store ptr %1, ptr %pp, align 8
  %tobool5.not = icmp eq ptr %a, null
  br i1 %tobool5.not, label %return, label %if.then6

if.then6:                                         ; preds = %if.end4
  %2 = load ptr, ptr %a, align 8
  call void @EC_KEY_free(ptr noundef %2) #5
  store ptr %call1, ptr %a, align 8
  br label %return

return:                                           ; preds = %if.end.i, %entry, %if.end4, %if.then6, %if.end
  %retval.0 = phi ptr [ null, %if.end ], [ %call1, %if.then6 ], [ %call1, %if.end4 ], [ null, %entry ], [ null, %if.end.i ]
  ret ptr %retval.0
}